; Function Attrs: nounwind sspstrong uwtable
define dso_local void @tcg_gen_subfi_i32(ptr noundef %0, i32 noundef %1, ptr noundef %2) local_unnamed_addr #2 {
  %4 = icmp eq i32 %1, 0
  br i1 %4, label %5, label %15

5:                                                ; preds = %3
  %6 = tail call align 8 ptr @llvm.threadlocal.address.p0(ptr align 8 @tcg_ctx)
  %7 = load ptr, ptr %6, align 8
  %8 = ptrtoint ptr %0 to i64
  %9 = getelementptr inbounds nuw i8, ptr %7, i64 %8
  %10 = ptrtoint ptr %9 to i64
  %11 = ptrtoint ptr %2 to i64
  %12 = getelementptr inbounds nuw i8, ptr %7, i64 %11
  %13 = ptrtoint ptr %12 to i64
  %14 = tail call ptr @tcg_gen_op2(i32 noundef 54, i32 noundef 0, i64 noundef %10, i64 noundef %13)
  br label %29

15:                                               ; preds = %3
  %16 = tail call ptr @tcg_constant_i32(i32 noundef %1) #6
  %17 = tail call align 8 ptr @llvm.threadlocal.address.p0(ptr align 8 @tcg_ctx)
  %18 = load ptr, ptr %17, align 8
  %19 = ptrtoint ptr %0 to i64
  %20 = getelementptr inbounds nuw i8, ptr %18, i64 %19
  %21 = ptrtoint ptr %20 to i64
  %22 = ptrtoint ptr %16 to i64
  %23 = getelementptr inbounds nuw i8, ptr %18, i64 %22
  %24 = ptrtoint ptr %23 to i64
  %25 = ptrtoint ptr %2 to i64
  %26 = getelementptr inbounds nuw i8, ptr %18, i64 %25
  %27 = ptrtoint ptr %26 to i64
  %28 = tail call ptr @tcg_gen_op3(i32 noundef 18, i32 noundef 0, i64 noundef %21, i64 noundef %24, i64 noundef %27)
  br label %29

29:                                               ; preds = %15, %5
  ret void
}